target datalayout = "e-m:e-p270:32:32-p271:32:32-p272:64:64-i64:64-i128:128-f80:128-n8:16:32:64-S128"
target triple = "x86_64-pc-linux-gnu"

%struct.expert_field = type { i32, i32 }
%struct._packet_info = type { ptr, ptr, i32, i32, %struct.nstime_t, %struct.nstime_t, %struct.nstime_t, i8, ptr, ptr, ptr, ptr, %struct._address, %struct._address, %struct._address, %struct._address, %struct._address, %struct._address, i32, ptr, i8, [3 x i8], %struct.anon, i32, i32, i32, i32, ptr, i8, ptr, ptr, i16, i16, i32, i32, i16, i32, i32, ptr, ptr, ptr, i8, i8, i16, i16, i16, i32, i16, i16, ptr, ptr, ptr, ptr, ptr, i32, i32 }
%struct.nstime_t = type { i64, i32 }
%struct._address = type { i32, i32, ptr, ptr }
%struct.anon = type { i8, [3 x i8] }

@ei_bssgp_missing_mandatory_element = internal global %struct.expert_field zeroinitializer, align 4
@.str.6 = private unnamed_addr constant [71 x i8] c"Missing Mandatory element (0x%02x) %s%s, rest of dissection is suspect\00", align 1
@.str.7 = private unnamed_addr constant [1 x i8] zeroinitializer, align 1
@ei_bssgp_extraneous_data = internal global %struct.expert_field zeroinitializer, align 4
@.str.755 = private unnamed_addr constant [13 x i8] c" - (PCU-PTP)\00", align 1

; Function Attrs: null_pointer_is_valid sspstrong uwtable
define internal void @bssgp_pos_resp(ptr noundef %0, ptr noundef %1, ptr noundef %2, i32 noundef %3, i32 noundef %4) #1 {
  %6 = alloca ptr, align 8
  %7 = alloca ptr, align 8
  %8 = alloca ptr, align 8
  %9 = alloca i32, align 4
  %10 = alloca i32, align 4
  %11 = alloca i32, align 4
  %12 = alloca i32, align 4
  %13 = alloca i32, align 4
  %14 = alloca i32, align 4
  store ptr %0, ptr %6, align 8
  store ptr %1, ptr %7, align 8
  store ptr %2, ptr %8, align 8
  store i32 %3, ptr %9, align 4
  store i32 %4, ptr %10, align 4
  call void @llvm.lifetime.start.p0(i64 4, ptr %11) #4
  call void @llvm.lifetime.start.p0(i64 4, ptr %12) #4
  call void @llvm.lifetime.start.p0(i64 4, ptr %13) #4
  %15 = load i32, ptr %9, align 4
  store i32 %15, ptr %11, align 4
  %16 = load i32, ptr %10, align 4
  store i32 %16, ptr %13, align 4
  %17 = load ptr, ptr %8, align 8
  %18 = getelementptr inbounds nuw %struct._packet_info, ptr %17, i32 0, i32 46
  store i32 1, ptr %18, align 8
  %19 = load i32, ptr %13, align 4
  %20 = icmp sgt i32 %19, 0
  br i1 %20, label %21, label %37

21:                                               ; preds = %5
  %22 = load ptr, ptr %6, align 8
  %23 = load ptr, ptr %7, align 8
  %24 = load ptr, ptr %8, align 8
  %25 = load i32, ptr %11, align 4
  %26 = load i32, ptr %13, align 4
  %27 = call zeroext i16 @elem_telv(ptr noundef %22, ptr noundef %23, ptr noundef %24, i8 noundef zeroext 31, i32 noundef 3, i32 noundef 68, i32 noundef %25, i32 noundef %26, ptr noundef null)
  %28 = zext i16 %27 to i32
  store i32 %28, ptr %12, align 4
  %29 = icmp ugt i32 %28, 0
  br i1 %29, label %30, label %37

30:                                               ; preds = %21
  %31 = load i32, ptr %12, align 4
  %32 = load i32, ptr %11, align 4
  %33 = add i32 %32, %31
  store i32 %33, ptr %11, align 4
  %34 = load i32, ptr %12, align 4
  %35 = load i32, ptr %13, align 4
  %36 = sub i32 %35, %34
  store i32 %36, ptr %13, align 4
  br label %44

37:                                               ; preds = %21, %5
  %38 = load ptr, ptr %7, align 8
  %39 = load ptr, ptr %8, align 8
  %40 = load ptr, ptr %6, align 8
  %41 = load i32, ptr %11, align 4
  %42 = call ptr @get_gsm_a_msg_string(i32 noundef 3, i32 noundef 68)
  %43 = call ptr (ptr, ptr, ptr, ptr, i32, i32, ptr, ...) @proto_tree_add_expert_format(ptr noundef %38, ptr noundef %39, ptr noundef @ei_bssgp_missing_mandatory_element, ptr noundef %40, i32 noundef %41, i32 noundef 0, ptr noundef @.str.6, i32 noundef 31, ptr noundef %42, ptr noundef @.str.7)
  br label %44

44:                                               ; preds = %37, %30
  %45 = load i32, ptr %13, align 4
  %46 = icmp sgt i32 %45, 0
  br i1 %46, label %47, label %63

47:                                               ; preds = %44
  %48 = load ptr, ptr %6, align 8
  %49 = load ptr, ptr %7, align 8
  %50 = load ptr, ptr %8, align 8
  %51 = load i32, ptr %11, align 4
  %52 = load i32, ptr %13, align 4
  %53 = call zeroext i16 @elem_telv(ptr noundef %48, ptr noundef %49, ptr noundef %50, i8 noundef zeroext 4, i32 noundef 13, i32 noundef 4, i32 noundef %51, i32 noundef %52, ptr noundef @.str.755)
  %54 = zext i16 %53 to i32
  store i32 %54, ptr %12, align 4
  %55 = icmp ugt i32 %54, 0
  br i1 %55, label %56, label %63

56:                                               ; preds = %47
  %57 = load i32, ptr %12, align 4
  %58 = load i32, ptr %11, align 4
  %59 = add i32 %58, %57
  store i32 %59, ptr %11, align 4
  %60 = load i32, ptr %12, align 4
  %61 = load i32, ptr %13, align 4
  %62 = sub i32 %61, %60
  store i32 %62, ptr %13, align 4
  br label %70

63:                                               ; preds = %47, %44
  %64 = load ptr, ptr %7, align 8
  %65 = load ptr, ptr %8, align 8
  %66 = load ptr, ptr %6, align 8
  %67 = load i32, ptr %11, align 4
  %68 = call ptr @get_gsm_a_msg_string(i32 noundef 13, i32 noundef 4)
  %69 = call ptr (ptr, ptr, ptr, ptr, i32, i32, ptr, ...) @proto_tree_add_expert_format(ptr noundef %64, ptr noundef %65, ptr noundef @ei_bssgp_missing_mandatory_element, ptr noundef %66, i32 noundef %67, i32 noundef 0, ptr noundef @.str.6, i32 noundef 4, ptr noundef %68, ptr noundef @.str.755)
  br label %70

70:                                               ; preds = %63, %56
  %71 = load i32, ptr %13, align 4
  %72 = icmp sle i32 %71, 0
  br i1 %72, label %73, label %74

73:                                               ; preds = %70
  store i32 1, ptr %14, align 4
  br label %146

74:                                               ; preds = %70
  %75 = load ptr, ptr %6, align 8
  %76 = load ptr, ptr %7, align 8
  %77 = load ptr, ptr %8, align 8
  %78 = load i32, ptr %11, align 4
  %79 = load i32, ptr %13, align 4
  %80 = call zeroext i16 @elem_telv(ptr noundef %75, ptr noundef %76, ptr noundef %77, i8 noundef zeroext 74, i32 noundef 13, i32 noundef 48, i32 noundef %78, i32 noundef %79, ptr noundef null)
  %81 = zext i16 %80 to i32
  store i32 %81, ptr %12, align 4
  %82 = icmp ugt i32 %81, 0
  br i1 %82, label %83, label %90

83:                                               ; preds = %74
  %84 = load i32, ptr %12, align 4
  %85 = load i32, ptr %11, align 4
  %86 = add i32 %85, %84
  store i32 %86, ptr %11, align 4
  %87 = load i32, ptr %12, align 4
  %88 = load i32, ptr %13, align 4
  %89 = sub i32 %88, %87
  store i32 %89, ptr %13, align 4
  br label %90

90:                                               ; preds = %83, %74
  %91 = load i32, ptr %13, align 4
  %92 = icmp sle i32 %91, 0
  br i1 %92, label %93, label %94

93:                                               ; preds = %90
  store i32 1, ptr %14, align 4
  br label %146

94:                                               ; preds = %90
  %95 = load ptr, ptr %6, align 8
  %96 = load ptr, ptr %7, align 8
  %97 = load ptr, ptr %8, align 8
  %98 = load i32, ptr %11, align 4
  %99 = load i32, ptr %13, align 4
  %100 = call zeroext i16 @elem_telv(ptr noundef %95, ptr noundef %96, ptr noundef %97, i8 noundef zeroext 63, i32 noundef 13, i32 noundef 47, i32 noundef %98, i32 noundef %99, ptr noundef null)
  %101 = zext i16 %100 to i32
  store i32 %101, ptr %12, align 4
  %102 = icmp ugt i32 %101, 0
  br i1 %102, label %103, label %110

103:                                              ; preds = %94
  %104 = load i32, ptr %12, align 4
  %105 = load i32, ptr %11, align 4
  %106 = add i32 %105, %104
  store i32 %106, ptr %11, align 4
  %107 = load i32, ptr %12, align 4
  %108 = load i32, ptr %13, align 4
  %109 = sub i32 %108, %107
  store i32 %109, ptr %13, align 4
  br label %110

110:                                              ; preds = %103, %94
  %111 = load i32, ptr %13, align 4
  %112 = icmp sle i32 %111, 0
  br i1 %112, label %113, label %114

113:                                              ; preds = %110
  store i32 1, ptr %14, align 4
  br label %146

114:                                              ; preds = %110
  %115 = load ptr, ptr %6, align 8
  %116 = load ptr, ptr %7, align 8
  %117 = load ptr, ptr %8, align 8
  %118 = load i32, ptr %11, align 4
  %119 = load i32, ptr %13, align 4
  %120 = call zeroext i16 @elem_telv(ptr noundef %115, ptr noundef %116, ptr noundef %117, i8 noundef zeroext 72, i32 noundef 8, i32 noundef 8, i32 noundef %118, i32 noundef %119, ptr noundef null)
  %121 = zext i16 %120 to i32
  store i32 %121, ptr %12, align 4
  %122 = icmp ugt i32 %121, 0
  br i1 %122, label %123, label %130

123:                                              ; preds = %114
  %124 = load i32, ptr %12, align 4
  %125 = load i32, ptr %11, align 4
  %126 = add i32 %125, %124
  store i32 %126, ptr %11, align 4
  %127 = load i32, ptr %12, align 4
  %128 = load i32, ptr %13, align 4
  %129 = sub i32 %128, %127
  store i32 %129, ptr %13, align 4
  br label %130

130:                                              ; preds = %123, %114
  %131 = load i32, ptr %13, align 4
  %132 = icmp ugt i32 %131, 0
  br i1 %132, label %133, label %145

133:                                              ; preds = %130
  %134 = load ptr, ptr %7, align 8
  %135 = load ptr, ptr %8, align 8
  %136 = load ptr, ptr %6, align 8
  %137 = load i32, ptr %11, align 4
  %138 = load i32, ptr %13, align 4
  %139 = sub i32 %138, 0
  %140 = call ptr @proto_tree_add_expert(ptr noundef %134, ptr noundef %135, ptr noundef @ei_bssgp_extraneous_data, ptr noundef %136, i32 noundef %137, i32 noundef %139)
  %141 = load i32, ptr %13, align 4
  %142 = sub i32 %141, 0
  %143 = load i32, ptr %11, align 4
  %144 = add i32 %143, %142
  store i32 %144, ptr %11, align 4
  br label %145

145:                                              ; preds = %133, %130
  store i32 0, ptr %14, align 4
  br label %146

146:                                              ; preds = %145, %113, %93, %73
  call void @llvm.lifetime.end.p0(i64 4, ptr %13) #4
  call void @llvm.lifetime.end.p0(i64 4, ptr %12) #4
  call void @llvm.lifetime.end.p0(i64 4, ptr %11) #4
  %147 = load i32, ptr %14, align 4
  switch i32 %147, label %149 [
    i32 0, label %148
    i32 1, label %148
  ]

148:                                              ; preds = %146, %146
  ret void

149:                                              ; preds = %146
  unreachable
}